; Function Attrs: nounwind uwtable
define dso_local void @sema_analysis_pass_ct_echo(ptr nocapture noundef readonly %0) local_unnamed_addr #1 {
  %2 = alloca %struct.SemaContext_, align 8
  %3 = getelementptr inbounds i8, ptr %0, i64 56
  %4 = load ptr, ptr %3, align 8
  %.not = icmp eq ptr %4, null
  br i1 %.not, label %.loopexit, label %5

5:                                                ; preds = %1
  %6 = getelementptr inbounds i8, ptr %4, i64 -8
  %7 = load i32, ptr %6, align 4
  %.not33 = icmp eq i32 %7, 0
  br i1 %.not33, label %.loopexit, label %.lr.ph32

.lr.ph32:                                         ; preds = %5
  %8 = getelementptr inbounds i8, ptr %2, i64 8
  %wide.trip.count38 = zext i32 %7 to i64
  br label %9

9:                                                ; preds = %.lr.ph32, %._crit_edge
  %indvars.iv35 = phi i64 [ 0, %.lr.ph32 ], [ %indvars.iv.next36, %._crit_edge ]
  %10 = load ptr, ptr %3, align 8
  %11 = getelementptr inbounds ptr, ptr %10, i64 %indvars.iv35
  %12 = load ptr, ptr %11, align 8
  call void @sema_context_init(ptr noundef nonnull %2, ptr noundef %12) #11
  %13 = load ptr, ptr %8, align 8
  %14 = getelementptr inbounds i8, ptr %13, i64 128
  %15 = load ptr, ptr %14, align 8
  %.not26 = icmp eq ptr %15, null
  br i1 %.not26, label %._crit_edge, label %16

16:                                               ; preds = %9
  %17 = getelementptr inbounds i8, ptr %15, i64 -8
  %18 = load i32, ptr %17, align 4
  %.not2728.not = icmp eq i32 %18, 0
  br i1 %.not2728.not, label %._crit_edge, label %.lr.ph.preheader

.lr.ph.preheader:                                 ; preds = %16
  %wide.trip.count = zext i32 %18 to i64
  br label %.lr.ph

19:                                               ; preds = %.lr.ph
  %indvars.iv.next = add nuw nsw i64 %indvars.iv, 1
  %exitcond.not = icmp eq i64 %indvars.iv.next, %wide.trip.count
  br i1 %exitcond.not, label %._crit_edge, label %.lr.ph, !llvm.loop !28

.lr.ph:                                           ; preds = %.lr.ph.preheader, %19
  %indvars.iv = phi i64 [ 0, %.lr.ph.preheader ], [ %indvars.iv.next, %19 ]
  %20 = getelementptr inbounds ptr, ptr %15, i64 %indvars.iv
  %21 = load ptr, ptr %20, align 8
  %22 = getelementptr inbounds i8, ptr %21, i64 80
  %23 = load ptr, ptr %22, align 8
  %24 = call zeroext i1 @sema_analyse_ct_echo_stmt(ptr noundef nonnull %2, ptr noundef %23) #11
  br i1 %24, label %19, label %25

25:                                               ; preds = %.lr.ph
  call void @sema_context_destroy(ptr noundef nonnull %2) #11
  br label %.loopexit

._crit_edge:                                      ; preds = %19, %9, %16
  call void @sema_context_destroy(ptr noundef nonnull %2) #11
  %indvars.iv.next36 = add nuw nsw i64 %indvars.iv35, 1
  %exitcond39.not = icmp eq i64 %indvars.iv.next36, %wide.trip.count38
  br i1 %exitcond39.not, label %.loopexit, label %9, !llvm.loop !29

.loopexit:                                        ; preds = %._crit_edge, %1, %5, %25
  ret void
}